; ModuleID = '30/555.c'
source_filename = "30/555.c"
target datalayout = "e-m:e-p270:32:32-p271:32:32-p272:64:64-i64:64-f80:128-n8:16:32:64-S128"
target triple = "x86_64-pc-linux-gnu"

@.str = private unnamed_addr constant [3 x i8] c"%d\00", align 1

; Function Attrs: noinline nounwind uwtable
define dso_local i32 @main() #0 {
  %1 = alloca i32, align 4
  %2 = alloca i32, align 4
  %3 = alloca i32, align 4
  %4 = alloca i32, align 4
  store i32 0, i32* %1, align 4
  store i32 0, i32* %3, align 4
  %5 = call i32 (i8*, ...) @__isoc99_scanf(i8* getelementptr inbounds ([3 x i8], [3 x i8]* @.str, i64 0, i64 0), i32* %2)
  store i32 1, i32* %4, align 4
  br label %6

6:                                                ; preds = %33, %0
  %7 = load i32, i32* %4, align 4
  %8 = load i32, i32* %2, align 4
  %9 = icmp sle i32 %7, %8
  br i1 %9, label %10, label %36

10:                                               ; preds = %6
  %11 = load i32, i32* %4, align 4
  %12 = srem i32 %11, 7
  %13 = icmp eq i32 %12, 0
  br i1 %13, label %23, label %14

14:                                               ; preds = %10
  %15 = load i32, i32* %4, align 4
  %16 = srem i32 %15, 10
  %17 = icmp eq i32 %16, 7
  br i1 %17, label %23, label %18

18:                                               ; preds = %14
  %19 = load i32, i32* %4, align 4
  %20 = sdiv i32 %19, 10
  %21 = srem i32 %20, 10
  %22 = icmp eq i32 %21, 7
  br i1 %22, label %23, label %24

23:                                               ; preds = %18, %14, %10
  br label %33

24:                                               ; preds = %18
  %25 = load i32, i32* %3, align 4
  %26 = sitofp i32 %25 to double
  %27 = load i32, i32* %4, align 4
  %28 = sitofp i32 %27 to double
  %29 = call double @pow(double %28, double 2.000000e+00) #3
  %30 = fadd double %26, %29
  %31 = fptosi double %30 to i32
  store i32 %31, i32* %3, align 4
  br label %32

32:                                               ; preds = %24
  br label %33

33:                                               ; preds = %32, %23
  %34 = load i32, i32* %4, align 4
  %35 = add nsw i32 %34, 1
  store i32 %35, i32* %4, align 4
  br label %6

36:                                               ; preds = %6
  %37 = load i32, i32* %3, align 4
  %38 = call i32 (i8*, ...) @printf(i8* getelementptr inbounds ([3 x i8], [3 x i8]* @.str, i64 0, i64 0), i32 %37)
  ret i32 0
}

declare dso_local i32 @__isoc99_scanf(i8*, ...) #1

; Function Attrs: nounwind
declare dso_local double @pow(double, double) #2

declare dso_local i32 @printf(i8*, ...) #1


!llvm.module.flags = !{!0}
!llvm.ident = !{!1}

!0 = !{i32 1, !"wchar_size", i32 4}
!1 = !{!"clang version 10.0.0-4ubuntu1 "}
